ARM GAS  C:\Users\nicoz\AppData\Local\Temp\ccQyZdlw.s 			page 1


   1              		.syntax unified
   2              		.cpu cortex-m3
   3              		.fpu softvfp
   4              		.eabi_attribute 20, 1
   5              		.eabi_attribute 21, 1
   6              		.eabi_attribute 23, 3
   7              		.eabi_attribute 24, 1
   8              		.eabi_attribute 25, 1
   9              		.eabi_attribute 26, 1
  10              		.eabi_attribute 30, 1
  11              		.eabi_attribute 34, 1
  12              		.eabi_attribute 18, 4
  13              		.thumb
  14              		.syntax unified
  15              		.file	"main.c"
  16              		.text
  17              	.Ltext0:
  18              		.cfi_sections	.debug_frame
  19              		.section	.text.writeToRAM,"ax",%progbits
  20              		.align	2
  21              		.global	writeToRAM
  22              		.thumb
  23              		.thumb_func
  24              		.type	writeToRAM, %function
  25              	writeToRAM:
  26              	.LFB64:
  27              		.file 1 "main.c"
   1:main.c        **** /* ========================================
   2:main.c        ****  *
   3:main.c        ****  * Copyright YOUR COMPANY, THE YEAR
   4:main.c        ****  * All Rights Reserved
   5:main.c        ****  * UNPUBLISHED, LICENSED SOFTWARE.
   6:main.c        ****  *
   7:main.c        ****  * CONFIDENTIAL AND PROPRIETARY INFORMATION
   8:main.c        ****  * WHICH IS THE PROPERTY OF your company.
   9:main.c        ****  *
  10:main.c        ****  * ========================================
  11:main.c        **** */
  12:main.c        **** #include "project.h"
  13:main.c        **** #include <stdio.h>
  14:main.c        **** 
  15:main.c        **** uint8_t cnt, in;
  16:main.c        **** uint8_t write;
  17:main.c        **** 
  18:main.c        **** uint8_t rxData[]={};
  19:main.c        **** 
  20:main.c        **** void writeToRAM(uint16_t start_addr, uint8_t* data){
  28              		.loc 1 20 0
  29              		.cfi_startproc
  30              		@ args = 0, pretend = 0, frame = 0
  31              		@ frame_needed = 0, uses_anonymous_args = 0
  32              	.LVL0:
  33 0000 F8B5     		push	{r3, r4, r5, r6, r7, lr}
  34              		.cfi_def_cfa_offset 24
  35              		.cfi_offset 3, -24
  36              		.cfi_offset 4, -20
  37              		.cfi_offset 5, -16
ARM GAS  C:\Users\nicoz\AppData\Local\Temp\ccQyZdlw.s 			page 2


  38              		.cfi_offset 6, -12
  39              		.cfi_offset 7, -8
  40              		.cfi_offset 14, -4
  41 0002 0746     		mov	r7, r0
  42 0004 0E46     		mov	r6, r1
  21:main.c        ****     uint16_t addr;
  22:main.c        ****     char out[] = {};
  23:main.c        ****     
  24:main.c        ****     //since we do not want to read, set the OE/Read Pin high
  25:main.c        ****     Read_Write(1);
  43              		.loc 1 25 0
  44 0006 0120     		movs	r0, #1
  45              	.LVL1:
  46 0008 FFF7FEFF 		bl	Read_Write
  47              	.LVL2:
  48              	.LBB2:
  26:main.c        ****         
  27:main.c        ****     for(uint16_t cnt=0; cnt <= (strlen(data)-1); cnt++){
  49              		.loc 1 27 0
  50 000c 0024     		movs	r4, #0
  51 000e 24E0     		b	.L2
  52              	.LVL3:
  53              	.L3:
  28:main.c        ****     
  29:main.c        ****         addr = start_addr + cnt;
  54              		.loc 1 29 0 discriminator 3
  55 0010 E519     		adds	r5, r4, r7
  56 0012 ADB2     		uxth	r5, r5
  57              	.LVL4:
  30:main.c        ****         
  31:main.c        ****         //put the address onto the bus
  32:main.c        ****         Address_LSB_Write(addr & 0x0FF);
  58              		.loc 1 32 0 discriminator 3
  59 0014 E8B2     		uxtb	r0, r5
  60 0016 FFF7FEFF 		bl	Address_LSB_Write
  61              	.LVL5:
  33:main.c        ****         Address_MSB_Write(addr >> 8);
  62              		.loc 1 33 0 discriminator 3
  63 001a 280A     		lsrs	r0, r5, #8
  64 001c FFF7FEFF 		bl	Address_MSB_Write
  65              	.LVL6:
  34:main.c        **** 
  35:main.c        ****         Write_Write(0);
  66              		.loc 1 35 0 discriminator 3
  67 0020 0020     		movs	r0, #0
  68 0022 FFF7FEFF 		bl	Write_Write
  69              	.LVL7:
  36:main.c        ****         CS_Write(0);
  70              		.loc 1 36 0 discriminator 3
  71 0026 0020     		movs	r0, #0
  72 0028 FFF7FEFF 		bl	CS_Write
  73              	.LVL8:
  37:main.c        ****         
  38:main.c        ****         //get the data bus out of High-Z mode
  39:main.c        ****         Data_SetDriveMode(Data_DM_RES_UPDWN);
  74              		.loc 1 39 0 discriminator 3
  75 002c 0E20     		movs	r0, #14
ARM GAS  C:\Users\nicoz\AppData\Local\Temp\ccQyZdlw.s 			page 3


  76 002e FFF7FEFF 		bl	Data_SetDriveMode
  77              	.LVL9:
  40:main.c        ****         
  41:main.c        ****         //put data on the bus (longer than needed but shortest time for delay
  42:main.c        ****         Data_Write(data[cnt]);
  78              		.loc 1 42 0 discriminator 3
  79 0032 305D     		ldrb	r0, [r6, r4]	@ zero_extendqisi2
  80 0034 FFF7FEFF 		bl	Data_Write
  81              	.LVL10:
  43:main.c        ****         CyDelayUs(1);
  82              		.loc 1 43 0 discriminator 3
  83 0038 0120     		movs	r0, #1
  84 003a FFF7FEFF 		bl	CyDelayUs
  85              	.LVL11:
  44:main.c        ****         
  45:main.c        ****         Write_Write(1);
  86              		.loc 1 45 0 discriminator 3
  87 003e 0120     		movs	r0, #1
  88 0040 FFF7FEFF 		bl	Write_Write
  89              	.LVL12:
  46:main.c        ****         CS_Write(1);
  90              		.loc 1 46 0 discriminator 3
  91 0044 0120     		movs	r0, #1
  92 0046 FFF7FEFF 		bl	CS_Write
  93              	.LVL13:
  47:main.c        ****         
  48:main.c        ****         Data_SetDriveMode(Data_DM_DIG_HIZ);
  94              		.loc 1 48 0 discriminator 3
  95 004a 0220     		movs	r0, #2
  96 004c FFF7FEFF 		bl	Data_SetDriveMode
  97              	.LVL14:
  49:main.c        ****         CyDelayUs(1);
  98              		.loc 1 49 0 discriminator 3
  99 0050 0120     		movs	r0, #1
 100 0052 FFF7FEFF 		bl	CyDelayUs
 101              	.LVL15:
  27:main.c        ****     
 102              		.loc 1 27 0 discriminator 3
 103 0056 0134     		adds	r4, r4, #1
 104              	.LVL16:
 105 0058 A4B2     		uxth	r4, r4
 106              	.LVL17:
 107              	.L2:
  27:main.c        ****     
 108              		.loc 1 27 0 is_stmt 0 discriminator 1
 109 005a 3046     		mov	r0, r6
 110 005c FFF7FEFF 		bl	strlen
 111              	.LVL18:
 112 0060 0138     		subs	r0, r0, #1
 113 0062 8442     		cmp	r4, r0
 114 0064 D4D9     		bls	.L3
 115              	.LBE2:
  50:main.c        ****     }
  51:main.c        **** }
 116              		.loc 1 51 0 is_stmt 1
 117 0066 F8BD     		pop	{r3, r4, r5, r6, r7, pc}
 118              		.cfi_endproc
ARM GAS  C:\Users\nicoz\AppData\Local\Temp\ccQyZdlw.s 			page 4


 119              	.LFE64:
 120              		.size	writeToRAM, .-writeToRAM
 121              		.section	.text.readFromRAM,"ax",%progbits
 122              		.align	2
 123              		.global	readFromRAM
 124              		.thumb
 125              		.thumb_func
 126              		.type	readFromRAM, %function
 127              	readFromRAM:
 128              	.LFB65:
  52:main.c        **** 
  53:main.c        **** uint8_t readFromRAM(uint16_t addr){
 129              		.loc 1 53 0
 130              		.cfi_startproc
 131              		@ args = 0, pretend = 0, frame = 0
 132              		@ frame_needed = 0, uses_anonymous_args = 0
 133              	.LVL19:
 134 0000 10B5     		push	{r4, lr}
 135              		.cfi_def_cfa_offset 8
 136              		.cfi_offset 4, -8
 137              		.cfi_offset 14, -4
 138 0002 0446     		mov	r4, r0
 139              	.LVL20:
  54:main.c        ****     uint8_t data = 0;
  55:main.c        ****     
  56:main.c        ****     Write_Write(1);
 140              		.loc 1 56 0
 141 0004 0120     		movs	r0, #1
 142              	.LVL21:
 143 0006 FFF7FEFF 		bl	Write_Write
 144              	.LVL22:
  57:main.c        ****     
  58:main.c        ****     //put the address onto the bus
  59:main.c        ****     Address_LSB_Write(addr & 0x0FF);
 145              		.loc 1 59 0
 146 000a E0B2     		uxtb	r0, r4
 147 000c FFF7FEFF 		bl	Address_LSB_Write
 148              	.LVL23:
  60:main.c        ****     Address_MSB_Write(addr >> 8);
 149              		.loc 1 60 0
 150 0010 200A     		lsrs	r0, r4, #8
 151 0012 FFF7FEFF 		bl	Address_MSB_Write
 152              	.LVL24:
  61:main.c        ****     
  62:main.c        ****     Read_Write(0);
 153              		.loc 1 62 0
 154 0016 0020     		movs	r0, #0
 155 0018 FFF7FEFF 		bl	Read_Write
 156              	.LVL25:
  63:main.c        ****     CS_Write(0);
 157              		.loc 1 63 0
 158 001c 0020     		movs	r0, #0
 159 001e FFF7FEFF 		bl	CS_Write
 160              	.LVL26:
  64:main.c        ****     
  65:main.c        ****     CyDelayUs(1);
 161              		.loc 1 65 0
ARM GAS  C:\Users\nicoz\AppData\Local\Temp\ccQyZdlw.s 			page 5


 162 0022 0120     		movs	r0, #1
 163 0024 FFF7FEFF 		bl	CyDelayUs
 164              	.LVL27:
  66:main.c        ****     data = Data_Read();
 165              		.loc 1 66 0
 166 0028 FFF7FEFF 		bl	Data_Read
 167              	.LVL28:
 168 002c 0446     		mov	r4, r0
 169              	.LVL29:
  67:main.c        ****     
  68:main.c        ****     CS_Write(1);
 170              		.loc 1 68 0
 171 002e 0120     		movs	r0, #1
 172 0030 FFF7FEFF 		bl	CS_Write
 173              	.LVL30:
  69:main.c        ****     Read_Write(1);
 174              		.loc 1 69 0
 175 0034 0120     		movs	r0, #1
 176 0036 FFF7FEFF 		bl	Read_Write
 177              	.LVL31:
  70:main.c        ****     
  71:main.c        ****     CyDelayUs(1);
 178              		.loc 1 71 0
 179 003a 0120     		movs	r0, #1
 180 003c FFF7FEFF 		bl	CyDelayUs
 181              	.LVL32:
  72:main.c        ****     
  73:main.c        ****     return data;
  74:main.c        **** }
 182              		.loc 1 74 0
 183 0040 2046     		mov	r0, r4
 184 0042 10BD     		pop	{r4, pc}
 185              		.cfi_endproc
 186              	.LFE65:
 187              		.size	readFromRAM, .-readFromRAM
 188              		.section	.text.main,"ax",%progbits
 189              		.align	2
 190              		.global	main
 191              		.thumb
 192              		.thumb_func
 193              		.type	main, %function
 194              	main:
 195              	.LFB66:
  75:main.c        **** 
  76:main.c        **** 
  77:main.c        **** int main(void)
  78:main.c        **** {
 196              		.loc 1 78 0
 197              		.cfi_startproc
 198              		@ Volatile: function does not return.
 199              		@ args = 0, pretend = 0, frame = 0
 200              		@ frame_needed = 0, uses_anonymous_args = 0
 201 0000 08B5     		push	{r3, lr}
 202              		.cfi_def_cfa_offset 8
 203              		.cfi_offset 3, -8
 204              		.cfi_offset 14, -4
  79:main.c        ****     
ARM GAS  C:\Users\nicoz\AppData\Local\Temp\ccQyZdlw.s 			page 6


  80:main.c        ****     CyGlobalIntEnable; /* Enable global interrupts. */
 205              		.loc 1 80 0
 206              		.syntax unified
 207              	@ 80 "main.c" 1
 208 0002 62B6     		CPSIE   i
 209              	@ 0 "" 2
  81:main.c        ****     UART_Start();
 210              		.loc 1 81 0
 211              		.thumb
 212              		.syntax unified
 213 0004 FFF7FEFF 		bl	UART_Start
 214              	.LVL33:
  82:main.c        ****     UART_PutString("\n***Test scrip for writing to a paralell RAM-IC***\nStart writing with 'w' and
 215              		.loc 1 82 0
 216 0008 1948     		ldr	r0, .L16
 217 000a FFF7FEFF 		bl	UART_PutString
 218              	.LVL34:
 219              	.L14:
  83:main.c        ****     
  84:main.c        ****     for(;;){
  85:main.c        ****         
  86:main.c        ****         if(UART_GetChar() == 'w'){
 220              		.loc 1 86 0
 221 000e FFF7FEFF 		bl	UART_GetChar
 222              	.LVL35:
 223 0012 7728     		cmp	r0, #119
 224 0014 27D1     		bne	.L10
  87:main.c        ****             write = 1; 
 225              		.loc 1 87 0
 226 0016 0122     		movs	r2, #1
 227 0018 164B     		ldr	r3, .L16+4
 228 001a 1A70     		strb	r2, [r3]
  88:main.c        ****             cnt = 0; 
 229              		.loc 1 88 0
 230 001c 0022     		movs	r2, #0
 231 001e 164B     		ldr	r3, .L16+8
 232 0020 1A70     		strb	r2, [r3]
  89:main.c        ****             UART_PutString("Please put your Programm in now! \n Exit with 'f'\n");
 233              		.loc 1 89 0
 234 0022 1648     		ldr	r0, .L16+12
 235 0024 FFF7FEFF 		bl	UART_PutString
 236              	.LVL36:
 237 0028 1DE0     		b	.L10
 238              	.L13:
  90:main.c        ****         }
  91:main.c        ****         
  92:main.c        ****         while(write == 1){
  93:main.c        ****             in = UART_GetChar();
 239              		.loc 1 93 0
 240 002a FFF7FEFF 		bl	UART_GetChar
 241              	.LVL37:
 242 002e 144B     		ldr	r3, .L16+16
 243 0030 1870     		strb	r0, [r3]
  94:main.c        ****             if(in != 0){
 244              		.loc 1 94 0
 245 0032 C0B1     		cbz	r0, .L10
  95:main.c        ****                 if(in == 'f'){
ARM GAS  C:\Users\nicoz\AppData\Local\Temp\ccQyZdlw.s 			page 7


 246              		.loc 1 95 0
 247 0034 6628     		cmp	r0, #102
 248 0036 10D1     		bne	.L11
  96:main.c        ****                     write = 0;
 249              		.loc 1 96 0
 250 0038 0025     		movs	r5, #0
 251 003a 0E4B     		ldr	r3, .L16+4
 252 003c 1D70     		strb	r5, [r3]
  97:main.c        ****                     UART_PutString("Writing to RAM\n");
 253              		.loc 1 97 0
 254 003e 1148     		ldr	r0, .L16+20
 255 0040 FFF7FEFF 		bl	UART_PutString
 256              	.LVL38:
  98:main.c        ****                     //To-Do Code for Writing to RAM
  99:main.c        ****                     writeToRAM(0x0000, rxData);
 257              		.loc 1 99 0
 258 0044 104C     		ldr	r4, .L16+24
 259 0046 2146     		mov	r1, r4
 260 0048 2846     		mov	r0, r5
 261 004a FFF7FEFF 		bl	writeToRAM
 262              	.LVL39:
 100:main.c        ****                     UART_PutArray(rxData, cnt);
 263              		.loc 1 100 0
 264 004e 0A4B     		ldr	r3, .L16+8
 265 0050 1978     		ldrb	r1, [r3]	@ zero_extendqisi2
 266 0052 2046     		mov	r0, r4
 267 0054 FFF7FEFF 		bl	UART_PutArray
 268              	.LVL40:
 101:main.c        ****                     break;
 269              		.loc 1 101 0
 270 0058 D9E7     		b	.L14
 271              	.L11:
 102:main.c        ****                 } else {
 103:main.c        ****                     rxData[cnt] = in;
 272              		.loc 1 103 0
 273 005a 074A     		ldr	r2, .L16+8
 274 005c 1378     		ldrb	r3, [r2]	@ zero_extendqisi2
 275 005e 0A49     		ldr	r1, .L16+24
 276 0060 C854     		strb	r0, [r1, r3]
 104:main.c        ****                     cnt++;
 277              		.loc 1 104 0
 278 0062 0133     		adds	r3, r3, #1
 279 0064 1370     		strb	r3, [r2]
 280              	.L10:
  92:main.c        ****             in = UART_GetChar();
 281              		.loc 1 92 0
 282 0066 034B     		ldr	r3, .L16+4
 283 0068 1B78     		ldrb	r3, [r3]	@ zero_extendqisi2
 284 006a 012B     		cmp	r3, #1
 285 006c DDD0     		beq	.L13
 286 006e CEE7     		b	.L14
 287              	.L17:
 288              		.align	2
 289              	.L16:
 290 0070 00000000 		.word	.LC0
 291 0074 00000000 		.word	write
 292 0078 00000000 		.word	cnt
ARM GAS  C:\Users\nicoz\AppData\Local\Temp\ccQyZdlw.s 			page 8


 293 007c 64000000 		.word	.LC1
 294 0080 00000000 		.word	in
 295 0084 98000000 		.word	.LC2
 296 0088 00000000 		.word	.LANCHOR0
 297              		.cfi_endproc
 298              	.LFE66:
 299              		.size	main, .-main
 300              		.global	rxData
 301              		.comm	write,1,1
 302              		.comm	in,1,1
 303              		.comm	cnt,1,1
 304              		.section	.rodata.str1.4,"aMS",%progbits,1
 305              		.align	2
 306              	.LC0:
 307 0000 0A2A2A2A 		.ascii	"\012***Test scrip for writing to a paralell RAM-IC*"
 307      54657374 
 307      20736372 
 307      69702066 
 307      6F722077 
 308 0030 2A2A0A53 		.ascii	"**\012Start writing with 'w' and reading with 'r':\012"
 308      74617274 
 308      20777269 
 308      74696E67 
 308      20776974 
 309 0060 00       		.ascii	"\000"
 310 0061 000000   		.space	3
 311              	.LC1:
 312 0064 506C6561 		.ascii	"Please put your Programm in now! \012 Exit with 'f'"
 312      73652070 
 312      75742079 
 312      6F757220 
 312      50726F67 
 313 0094 0A00     		.ascii	"\012\000"
 314 0096 0000     		.space	2
 315              	.LC2:
 316 0098 57726974 		.ascii	"Writing to RAM\012\000"
 316      696E6720 
 316      746F2052 
 316      414D0A00 
 317              		.bss
 318              		.align	2
 319              		.set	.LANCHOR0,. + 0
 320              		.type	rxData, %object
 321              		.size	rxData, 0
 322              	rxData:
 323              		.text
 324              	.Letext0:
 325              		.file 2 "c:\\program files (x86)\\cypress\\psoc creator\\4.4\\psoc creator\\import\\gnu\\arm\\5.4.
 326              		.file 3 "c:\\program files (x86)\\cypress\\psoc creator\\4.4\\psoc creator\\import\\gnu\\arm\\5.4.
 327              		.file 4 "Generated_Source\\PSoC5/cytypes.h"
 328              		.file 5 "Generated_Source\\PSoC5/core_cm3.h"
 329              		.file 6 "Generated_Source\\PSoC5/Address_LSB.h"
 330              		.file 7 "Generated_Source\\PSoC5/Address_MSB.h"
 331              		.file 8 "Generated_Source\\PSoC5/Write.h"
 332              		.file 9 "Generated_Source\\PSoC5/CS.h"
 333              		.file 10 "Generated_Source\\PSoC5/Data.h"
 334              		.file 11 "Generated_Source\\PSoC5/CyLib.h"
ARM GAS  C:\Users\nicoz\AppData\Local\Temp\ccQyZdlw.s 			page 9


 335              		.file 12 "c:\\program files (x86)\\cypress\\psoc creator\\4.4\\psoc creator\\import\\gnu\\arm\\5.4
 336              		.file 13 "Generated_Source\\PSoC5/Read.h"
 337              		.file 14 "Generated_Source\\PSoC5/UART.h"